; Function Attrs: mustprogress nounwind uwtable
define internal fastcc void @_ZN12_GLOBAL__N_114CXXNameMangler10mangleTypeEPKN5clang19DependentBitIntTypeE(ptr noundef nonnull align 8 dereferenceable(280) %0, ptr noundef %1) unnamed_addr #0 align 2 {
  %3 = getelementptr inbounds nuw i8, ptr %0, i64 8
  %4 = load ptr, ptr %3, align 8
  %5 = getelementptr inbounds nuw i8, ptr %4, i64 24
  %6 = load ptr, ptr %5, align 8
  %7 = getelementptr inbounds nuw i8, ptr %4, i64 32
  %8 = load ptr, ptr %7, align 8
  %9 = icmp eq ptr %6, %8
  br i1 %9, label %10, label %12

10:                                               ; preds = %2
  %11 = tail call noundef nonnull align 8 dereferenceable(48) ptr @_ZN4llvm11raw_ostream5writeEPKcm(ptr noundef nonnull align 8 dereferenceable(48) %4, ptr noundef nonnull @.str.193, i64 noundef 1) #24
  br label %_ZN4llvm11raw_ostreamlsEPKc.exit

12:                                               ; preds = %2
  store i8 68, ptr %8, align 1
  %13 = load ptr, ptr %7, align 8
  %14 = getelementptr inbounds i8, ptr %13, i64 1
  store ptr %14, ptr %7, align 8
  br label %_ZN4llvm11raw_ostreamlsEPKc.exit

_ZN4llvm11raw_ostreamlsEPKc.exit:                 ; preds = %10, %12
  %.0.i.i = phi ptr [ %11, %10 ], [ %4, %12 ]
  %15 = tail call noundef zeroext i1 @_ZNK5clang19DependentBitIntType10isUnsignedEv(ptr noundef nonnull align 16 dereferenceable(48) %1) #24
  %.str.194..str.119 = select i1 %15, ptr @.str.194, ptr @.str.119
  %16 = getelementptr inbounds nuw i8, ptr %.0.i.i, i64 24
  %17 = load ptr, ptr %16, align 8
  %18 = getelementptr inbounds nuw i8, ptr %.0.i.i, i64 32
  %19 = load ptr, ptr %18, align 8
  %20 = icmp eq ptr %17, %19
  br i1 %20, label %21, label %23

21:                                               ; preds = %_ZN4llvm11raw_ostreamlsEPKc.exit
  %22 = tail call noundef nonnull align 8 dereferenceable(48) ptr @_ZN4llvm11raw_ostream5writeEPKcm(ptr noundef nonnull align 8 dereferenceable(48) %.0.i.i, ptr noundef nonnull %.str.194..str.119, i64 noundef 1) #24
  br label %_ZN4llvm11raw_ostreamlsEPKc.exit5

23:                                               ; preds = %_ZN4llvm11raw_ostreamlsEPKc.exit
  %24 = load i8, ptr %.str.194..str.119, align 1
  store i8 %24, ptr %19, align 1
  %25 = load ptr, ptr %18, align 8
  %26 = getelementptr inbounds i8, ptr %25, i64 1
  store ptr %26, ptr %18, align 8
  br label %_ZN4llvm11raw_ostreamlsEPKc.exit5

_ZN4llvm11raw_ostreamlsEPKc.exit5:                ; preds = %21, %23
  %27 = tail call noundef ptr @_ZNK5clang19DependentBitIntType14getNumBitsExprEv(ptr noundef nonnull align 16 dereferenceable(48) %1) #24
  tail call fastcc void @_ZN12_GLOBAL__N_114CXXNameMangler16mangleExpressionEPKN5clang4ExprEjb(ptr noundef nonnull align 8 dereferenceable(280) %0, ptr noundef %27, i32 noundef -1, i1 noundef zeroext false)
  %28 = load ptr, ptr %3, align 8
  %29 = getelementptr inbounds nuw i8, ptr %28, i64 24
  %30 = load ptr, ptr %29, align 8
  %31 = getelementptr inbounds nuw i8, ptr %28, i64 32
  %32 = load ptr, ptr %31, align 8
  %33 = icmp eq ptr %30, %32
  br i1 %33, label %34, label %36

34:                                               ; preds = %_ZN4llvm11raw_ostreamlsEPKc.exit5
  %35 = tail call noundef nonnull align 8 dereferenceable(48) ptr @_ZN4llvm11raw_ostream5writeEPKcm(ptr noundef nonnull align 8 dereferenceable(48) %28, ptr noundef nonnull @.str.1, i64 noundef 1) #24
  br label %_ZN4llvm11raw_ostreamlsEPKc.exit8

36:                                               ; preds = %_ZN4llvm11raw_ostreamlsEPKc.exit5
  store i8 95, ptr %32, align 1
  %37 = load ptr, ptr %31, align 8
  %38 = getelementptr inbounds i8, ptr %37, i64 1
  store ptr %38, ptr %31, align 8
  br label %_ZN4llvm11raw_ostreamlsEPKc.exit8

_ZN4llvm11raw_ostreamlsEPKc.exit8:                ; preds = %34, %36
  ret void
}